; Function Attrs: nounwind uwtable
define ptr @l_Nat_forRevM_loop___rarg___lambda__1___boxed(ptr noundef %0, ptr noundef %1, ptr noundef %2, ptr noundef %3, ptr noundef %4) #0 {
  %6 = tail call ptr @l_Nat_forRevM_loop___rarg(ptr noundef %0, ptr noundef %1, ptr noundef %2, ptr noundef %3, ptr nonnull poison)
  %7 = ptrtoint ptr %4 to i64
  %8 = and i64 %7, 1
  %.not = icmp eq i64 %8, 0
  br i1 %.not, label %9, label %lean_dec.exit8

9:                                                ; preds = %5
  %10 = load i32, ptr %4, align 4, !tbaa !9
  %11 = icmp sgt i32 %10, 1
  br i1 %11, label %12, label %14, !prof !12

12:                                               ; preds = %9
  %13 = add nsw i32 %10, -1
  store i32 %13, ptr %4, align 4, !tbaa !9
  br label %lean_dec.exit8

14:                                               ; preds = %9
  %.not.i = icmp eq i32 %10, 0
  br i1 %.not.i, label %lean_dec.exit8, label %15

15:                                               ; preds = %14
  tail call void @lean_dec_ref_cold(ptr noundef nonnull %4) #3
  br label %lean_dec.exit8

lean_dec.exit8:                                   ; preds = %15, %14, %12, %5
  %16 = ptrtoint ptr %3 to i64
  %17 = and i64 %16, 1
  %.not11 = icmp eq i64 %17, 0
  br i1 %.not11, label %18, label %lean_dec.exit

18:                                               ; preds = %lean_dec.exit8
  %19 = load i32, ptr %3, align 4, !tbaa !9
  %20 = icmp sgt i32 %19, 1
  br i1 %20, label %21, label %23, !prof !12

21:                                               ; preds = %18
  %22 = add nsw i32 %19, -1
  store i32 %22, ptr %3, align 4, !tbaa !9
  br label %lean_dec.exit

23:                                               ; preds = %18
  %.not.i9 = icmp eq i32 %19, 0
  br i1 %.not.i9, label %lean_dec.exit, label %24

24:                                               ; preds = %23
  tail call void @lean_dec_ref_cold(ptr noundef nonnull %3) #3
  br label %lean_dec.exit

lean_dec.exit:                                    ; preds = %24, %23, %21, %lean_dec.exit8
  ret ptr %6
}